target datalayout = "e-m:e-p270:32:32-p271:32:32-p272:64:64-i64:64-i128:128-f80:128-n8:16:32:64-S128"
target triple = "x86_64-unknown-linux-gnu"

%"class.std::__cxx11::basic_string" = type { %"struct.std::__cxx11::basic_string<char>::_Alloc_hider", i64, %union.anon }
%"struct.std::__cxx11::basic_string<char>::_Alloc_hider" = type { ptr }
%union.anon = type { i64, [8 x i8] }
%"class.rocksdb::Slice" = type { ptr, i64 }
%"class.rocksdb::PinnableSlice" = type <{ %"class.rocksdb::Slice", %"class.rocksdb::Cleanable", %"class.std::__cxx11::basic_string", ptr, i8, [7 x i8] }>
%"class.rocksdb::Cleanable" = type { %"struct.rocksdb::Cleanable::Cleanup" }
%"struct.rocksdb::Cleanable::Cleanup" = type { ptr, ptr, ptr, ptr }

; Function Attrs: mustprogress uwtable
define linkonce_odr void @_ZN7rocksdb9Cleanable9DoCleanupEv(ptr noundef nonnull align 8 dereferenceable(32) %this) #0 comdat align 2 {
entry:
  %this.addr = alloca ptr, align 8
  %c = alloca ptr, align 8
  %next11 = alloca ptr, align 8
  store ptr %this, ptr %this.addr, align 8
  %this1 = load ptr, ptr %this.addr, align 8
  %cleanup_ = getelementptr inbounds %"class.rocksdb::Cleanable", ptr %this1, i32 0, i32 0
  %function = getelementptr inbounds %"struct.rocksdb::Cleanable::Cleanup", ptr %cleanup_, i32 0, i32 0
  %0 = load ptr, ptr %function, align 8
  %cmp = icmp ne ptr %0, null
  br i1 %cmp, label %if.then, label %if.end

if.then:                                          ; preds = %entry
  %cleanup_2 = getelementptr inbounds %"class.rocksdb::Cleanable", ptr %this1, i32 0, i32 0
  %function3 = getelementptr inbounds %"struct.rocksdb::Cleanable::Cleanup", ptr %cleanup_2, i32 0, i32 0
  %1 = load ptr, ptr %function3, align 8
  %cleanup_4 = getelementptr inbounds %"class.rocksdb::Cleanable", ptr %this1, i32 0, i32 0
  %arg1 = getelementptr inbounds %"struct.rocksdb::Cleanable::Cleanup", ptr %cleanup_4, i32 0, i32 1
  %2 = load ptr, ptr %arg1, align 8
  %cleanup_5 = getelementptr inbounds %"class.rocksdb::Cleanable", ptr %this1, i32 0, i32 0
  %arg2 = getelementptr inbounds %"struct.rocksdb::Cleanable::Cleanup", ptr %cleanup_5, i32 0, i32 2
  %3 = load ptr, ptr %arg2, align 8
  call void %1(ptr noundef %2, ptr noundef %3)
  %cleanup_6 = getelementptr inbounds %"class.rocksdb::Cleanable", ptr %this1, i32 0, i32 0
  %next = getelementptr inbounds %"struct.rocksdb::Cleanable::Cleanup", ptr %cleanup_6, i32 0, i32 3
  %4 = load ptr, ptr %next, align 8
  store ptr %4, ptr %c, align 8
  br label %for.cond

for.cond:                                         ; preds = %delete.end, %if.then
  %5 = load ptr, ptr %c, align 8
  %cmp7 = icmp ne ptr %5, null
  br i1 %cmp7, label %for.body, label %for.end

for.body:                                         ; preds = %for.cond
  %6 = load ptr, ptr %c, align 8
  %function8 = getelementptr inbounds %"struct.rocksdb::Cleanable::Cleanup", ptr %6, i32 0, i32 0
  %7 = load ptr, ptr %function8, align 8
  %8 = load ptr, ptr %c, align 8
  %arg19 = getelementptr inbounds %"struct.rocksdb::Cleanable::Cleanup", ptr %8, i32 0, i32 1
  %9 = load ptr, ptr %arg19, align 8
  %10 = load ptr, ptr %c, align 8
  %arg210 = getelementptr inbounds %"struct.rocksdb::Cleanable::Cleanup", ptr %10, i32 0, i32 2
  %11 = load ptr, ptr %arg210, align 8
  call void %7(ptr noundef %9, ptr noundef %11)
  %12 = load ptr, ptr %c, align 8
  %next12 = getelementptr inbounds %"struct.rocksdb::Cleanable::Cleanup", ptr %12, i32 0, i32 3
  %13 = load ptr, ptr %next12, align 8
  store ptr %13, ptr %next11, align 8
  %14 = load ptr, ptr %c, align 8
  %isnull = icmp eq ptr %14, null
  br i1 %isnull, label %delete.end, label %delete.notnull

delete.notnull:                                   ; preds = %for.body
  call void @_ZdlPv(ptr noundef %14) #13
  br label %delete.end

delete.end:                                       ; preds = %delete.notnull, %for.body
  %15 = load ptr, ptr %next11, align 8
  store ptr %15, ptr %c, align 8
  br label %for.cond, !llvm.loop !13

for.end:                                          ; preds = %for.cond
  br label %if.end

if.end:                                           ; preds = %for.end, %entry
  ret void
}

; Function Attrs: mustprogress nounwind uwtable
define linkonce_odr void @_ZN7rocksdb13PinnableSlice7PinSelfEv(ptr noundef nonnull align 8 dereferenceable(89) %this) #3 comdat align 2 {
entry:
  %this.addr = alloca ptr, align 8
  store ptr %this, ptr %this.addr, align 8
  %this1 = load ptr, ptr %this.addr, align 8
  %buf_ = getelementptr inbounds %"class.rocksdb::PinnableSlice", ptr %this1, i32 0, i32 3
  %0 = load ptr, ptr %buf_, align 8
  %call = call noundef ptr @_ZNSt7__cxx1112basic_stringIcSt11char_traitsIcESaIcEE4dataEv(ptr noundef nonnull align 8 dereferenceable(32) %0) #14
  %data_ = getelementptr inbounds %"class.rocksdb::Slice", ptr %this1, i32 0, i32 0
  store ptr %call, ptr %data_, align 8
  %buf_2 = getelementptr inbounds %"class.rocksdb::PinnableSlice", ptr %this1, i32 0, i32 3
  %1 = load ptr, ptr %buf_2, align 8
  %call3 = call noundef i64 @_ZNKSt7__cxx1112basic_stringIcSt11char_traitsIcESaIcEE4sizeEv(ptr noundef nonnull align 8 dereferenceable(32) %1) #14
  %size_ = getelementptr inbounds %"class.rocksdb::Slice", ptr %this1, i32 0, i32 1
  store i64 %call3, ptr %size_, align 8
  ret void
}

; Function Attrs: mustprogress uwtable
define linkonce_odr void @_ZN7rocksdb9Cleanable5ResetEv(ptr noundef nonnull align 8 dereferenceable(32) %this) #0 comdat align 2 {
entry:
  %this.addr = alloca ptr, align 8
  store ptr %this, ptr %this.addr, align 8
  %this1 = load ptr, ptr %this.addr, align 8
  call void @_ZN7rocksdb9Cleanable9DoCleanupEv(ptr noundef nonnull align 8 dereferenceable(32) %this1)
  %cleanup_ = getelementptr inbounds %"class.rocksdb::Cleanable", ptr %this1, i32 0, i32 0
  %function = getelementptr inbounds %"struct.rocksdb::Cleanable::Cleanup", ptr %cleanup_, i32 0, i32 0
  store ptr null, ptr %function, align 8
  %cleanup_2 = getelementptr inbounds %"class.rocksdb::Cleanable", ptr %this1, i32 0, i32 0
  %next = getelementptr inbounds %"struct.rocksdb::Cleanable::Cleanup", ptr %cleanup_2, i32 0, i32 3
  store ptr null, ptr %next, align 8
  ret void
}

; Function Attrs: mustprogress uwtable
define noundef nonnull align 8 dereferenceable(89) ptr @_ZN7rocksdb13PinnableSliceaSEOS0_(ptr noundef nonnull align 8 dereferenceable(89) %this, ptr noundef nonnull align 8 dereferenceable(89) %other) #0 align 2 {
entry:
  %this.addr = alloca ptr, align 8
  %other.addr = alloca ptr, align 8
  store ptr %this, ptr %this.addr, align 8
  store ptr %other, ptr %other.addr, align 8
  %this1 = load ptr, ptr %this.addr, align 8
  %0 = load ptr, ptr %other.addr, align 8
  %cmp = icmp ne ptr %this1, %0
  br i1 %cmp, label %if.then, label %if.end30

if.then:                                          ; preds = %entry
  %add.ptr = getelementptr inbounds i8, ptr %this1, i64 16
  call void @_ZN7rocksdb9Cleanable5ResetEv(ptr noundef nonnull align 8 dereferenceable(32) %add.ptr)
  %add.ptr2 = getelementptr inbounds i8, ptr %this1, i64 16
  %1 = load ptr, ptr %other.addr, align 8
  %add.ptr3 = getelementptr inbounds i8, ptr %1, i64 16
  %call = call noundef nonnull align 8 dereferenceable(32) ptr @_ZN7rocksdb9CleanableaSEOS0_(ptr noundef nonnull align 8 dereferenceable(32) %add.ptr2, ptr noundef nonnull align 8 dereferenceable(32) %add.ptr3) #14
  %2 = load ptr, ptr %other.addr, align 8
  %size_ = getelementptr inbounds %"class.rocksdb::Slice", ptr %2, i32 0, i32 1
  %3 = load i64, ptr %size_, align 8
  %size_4 = getelementptr inbounds %"class.rocksdb::Slice", ptr %this1, i32 0, i32 1
  store i64 %3, ptr %size_4, align 8
  %4 = load ptr, ptr %other.addr, align 8
  %pinned_ = getelementptr inbounds %"class.rocksdb::PinnableSlice", ptr %4, i32 0, i32 4
  %5 = load i8, ptr %pinned_, align 8
  %tobool = trunc i8 %5 to i1
  %pinned_5 = getelementptr inbounds %"class.rocksdb::PinnableSlice", ptr %this1, i32 0, i32 4
  %frombool = zext i1 %tobool to i8
  store i8 %frombool, ptr %pinned_5, align 8
  %pinned_6 = getelementptr inbounds %"class.rocksdb::PinnableSlice", ptr %this1, i32 0, i32 4
  %6 = load i8, ptr %pinned_6, align 8
  %tobool7 = trunc i8 %6 to i1
  br i1 %tobool7, label %if.then8, label %if.else

if.then8:                                         ; preds = %if.then
  %7 = load ptr, ptr %other.addr, align 8
  %data_ = getelementptr inbounds %"class.rocksdb::Slice", ptr %7, i32 0, i32 0
  %8 = load ptr, ptr %data_, align 8
  %data_9 = getelementptr inbounds %"class.rocksdb::Slice", ptr %this1, i32 0, i32 0
  store ptr %8, ptr %data_9, align 8
  br label %if.end25

if.else:                                          ; preds = %if.then
  %9 = load ptr, ptr %other.addr, align 8
  %buf_ = getelementptr inbounds %"class.rocksdb::PinnableSlice", ptr %9, i32 0, i32 3
  %10 = load ptr, ptr %buf_, align 8
  %11 = load ptr, ptr %other.addr, align 8
  %self_space_ = getelementptr inbounds %"class.rocksdb::PinnableSlice", ptr %11, i32 0, i32 2
  %cmp10 = icmp eq ptr %10, %self_space_
  br i1 %cmp10, label %if.then11, label %if.else20

if.then11:                                        ; preds = %if.else
  %12 = load ptr, ptr %other.addr, align 8
  %self_space_12 = getelementptr inbounds %"class.rocksdb::PinnableSlice", ptr %12, i32 0, i32 2
  %self_space_13 = getelementptr inbounds %"class.rocksdb::PinnableSlice", ptr %this1, i32 0, i32 2
  %call14 = call noundef nonnull align 8 dereferenceable(32) ptr @_ZNSt7__cxx1112basic_stringIcSt11char_traitsIcESaIcEEaSEOS4_(ptr noundef nonnull align 8 dereferenceable(32) %self_space_13, ptr noundef nonnull align 8 dereferenceable(32) %self_space_12) #14
  %self_space_15 = getelementptr inbounds %"class.rocksdb::PinnableSlice", ptr %this1, i32 0, i32 2
  %buf_16 = getelementptr inbounds %"class.rocksdb::PinnableSlice", ptr %this1, i32 0, i32 3
  store ptr %self_space_15, ptr %buf_16, align 8
  %buf_17 = getelementptr inbounds %"class.rocksdb::PinnableSlice", ptr %this1, i32 0, i32 3
  %13 = load ptr, ptr %buf_17, align 8
  %call18 = call noundef ptr @_ZNSt7__cxx1112basic_stringIcSt11char_traitsIcESaIcEE4dataEv(ptr noundef nonnull align 8 dereferenceable(32) %13) #14
  %data_19 = getelementptr inbounds %"class.rocksdb::Slice", ptr %this1, i32 0, i32 0
  store ptr %call18, ptr %data_19, align 8
  br label %if.end

if.else20:                                        ; preds = %if.else
  %14 = load ptr, ptr %other.addr, align 8
  %buf_21 = getelementptr inbounds %"class.rocksdb::PinnableSlice", ptr %14, i32 0, i32 3
  %15 = load ptr, ptr %buf_21, align 8
  %buf_22 = getelementptr inbounds %"class.rocksdb::PinnableSlice", ptr %this1, i32 0, i32 3
  store ptr %15, ptr %buf_22, align 8
  %16 = load ptr, ptr %other.addr, align 8
  %data_23 = getelementptr inbounds %"class.rocksdb::Slice", ptr %16, i32 0, i32 0
  %17 = load ptr, ptr %data_23, align 8
  %data_24 = getelementptr inbounds %"class.rocksdb::Slice", ptr %this1, i32 0, i32 0
  store ptr %17, ptr %data_24, align 8
  br label %if.end

if.end:                                           ; preds = %if.else20, %if.then11
  br label %if.end25

if.end25:                                         ; preds = %if.end, %if.then8
  %18 = load ptr, ptr %other.addr, align 8
  %self_space_26 = getelementptr inbounds %"class.rocksdb::PinnableSlice", ptr %18, i32 0, i32 2
  call void @_ZNSt7__cxx1112basic_stringIcSt11char_traitsIcESaIcEE5clearEv(ptr noundef nonnull align 8 dereferenceable(32) %self_space_26) #14
  %19 = load ptr, ptr %other.addr, align 8
  %self_space_27 = getelementptr inbounds %"class.rocksdb::PinnableSlice", ptr %19, i32 0, i32 2
  %20 = load ptr, ptr %other.addr, align 8
  %buf_28 = getelementptr inbounds %"class.rocksdb::PinnableSlice", ptr %20, i32 0, i32 3
  store ptr %self_space_27, ptr %buf_28, align 8
  %21 = load ptr, ptr %other.addr, align 8
  %pinned_29 = getelementptr inbounds %"class.rocksdb::PinnableSlice", ptr %21, i32 0, i32 4
  store i8 0, ptr %pinned_29, align 8
  %22 = load ptr, ptr %other.addr, align 8
  call void @_ZN7rocksdb13PinnableSlice7PinSelfEv(ptr noundef nonnull align 8 dereferenceable(89) %22)
  br label %if.end30

if.end30:                                         ; preds = %if.end25, %entry
  ret ptr %this1
}