; Function Attrs: mustprogress uwtable
define noundef nonnull align 8 dereferenceable(89) ptr @_ZN7rocksdb13PinnableSliceaSEOS0_(ptr noundef nonnull returned align 8 dereferenceable(89) %this, ptr noundef nonnull align 8 dereferenceable(89) %other) local_unnamed_addr #0 align 2 {
entry:
  %cmp.not = icmp eq ptr %this, %other
  br i1 %cmp.not, label %if.end30, label %if.then

if.then:                                          ; preds = %entry
  %add.ptr = getelementptr inbounds i8, ptr %this, i64 16
  %0 = load ptr, ptr %add.ptr, align 8
  %cmp.not.i.i = icmp eq ptr %0, null
  br i1 %cmp.not.i.i, label %_ZN7rocksdb9Cleanable5ResetEv.exit, label %if.then.i.i

if.then.i.i:                                      ; preds = %if.then
  %arg1.i.i = getelementptr inbounds i8, ptr %this, i64 24
  %1 = load ptr, ptr %arg1.i.i, align 8
  %arg2.i.i = getelementptr inbounds i8, ptr %this, i64 32
  %2 = load ptr, ptr %arg2.i.i, align 8
  tail call void %0(ptr noundef %1, ptr noundef %2)
  %next.i.i = getelementptr inbounds i8, ptr %this, i64 40
  %3 = load ptr, ptr %next.i.i, align 8
  %cmp7.not6.i.i = icmp eq ptr %3, null
  br i1 %cmp7.not6.i.i, label %_ZN7rocksdb9Cleanable5ResetEv.exit, label %for.body.i.i

for.body.i.i:                                     ; preds = %if.then.i.i, %for.body.i.i
  %c.07.i.i = phi ptr [ %7, %for.body.i.i ], [ %3, %if.then.i.i ]
  %4 = load ptr, ptr %c.07.i.i, align 8
  %arg19.i.i = getelementptr inbounds i8, ptr %c.07.i.i, i64 8
  %5 = load ptr, ptr %arg19.i.i, align 8
  %arg210.i.i = getelementptr inbounds i8, ptr %c.07.i.i, i64 16
  %6 = load ptr, ptr %arg210.i.i, align 8
  tail call void %4(ptr noundef %5, ptr noundef %6)
  %next12.i.i = getelementptr inbounds i8, ptr %c.07.i.i, i64 24
  %7 = load ptr, ptr %next12.i.i, align 8
  tail call void @_ZdlPv(ptr noundef nonnull %c.07.i.i) #22
  %cmp7.not.i.i = icmp eq ptr %7, null
  br i1 %cmp7.not.i.i, label %_ZN7rocksdb9Cleanable5ResetEv.exit, label %for.body.i.i, !llvm.loop !22

_ZN7rocksdb9Cleanable5ResetEv.exit:               ; preds = %for.body.i.i, %if.then, %if.then.i.i
  store ptr null, ptr %add.ptr, align 8
  %next.i = getelementptr inbounds i8, ptr %this, i64 40
  store ptr null, ptr %next.i, align 8
  %add.ptr3 = getelementptr inbounds i8, ptr %other, i64 16
  %call = tail call noundef nonnull align 8 dereferenceable(32) ptr @_ZN7rocksdb9CleanableaSEOS0_(ptr noundef nonnull align 8 dereferenceable(32) %add.ptr, ptr noundef nonnull align 8 dereferenceable(32) %add.ptr3) #21
  %size_ = getelementptr inbounds i8, ptr %other, i64 8
  %8 = load i64, ptr %size_, align 8
  %size_4 = getelementptr inbounds i8, ptr %this, i64 8
  store i64 %8, ptr %size_4, align 8
  %pinned_ = getelementptr inbounds i8, ptr %other, i64 88
  %9 = load i8, ptr %pinned_, align 8
  %10 = and i8 %9, 1
  %tobool.not = icmp eq i8 %10, 0
  %pinned_5 = getelementptr inbounds i8, ptr %this, i64 88
  store i8 %10, ptr %pinned_5, align 8
  br i1 %tobool.not, label %if.else, label %if.then8

if.then8:                                         ; preds = %_ZN7rocksdb9Cleanable5ResetEv.exit
  %11 = load ptr, ptr %other, align 8
  br label %if.end25

if.else:                                          ; preds = %_ZN7rocksdb9Cleanable5ResetEv.exit
  %buf_ = getelementptr inbounds i8, ptr %other, i64 80
  %12 = load ptr, ptr %buf_, align 8
  %self_space_ = getelementptr inbounds i8, ptr %other, i64 48
  %cmp10 = icmp eq ptr %12, %self_space_
  br i1 %cmp10, label %if.then11, label %if.else20

if.then11:                                        ; preds = %if.else
  %self_space_13 = getelementptr inbounds i8, ptr %this, i64 48
  %call14 = tail call noundef nonnull align 8 dereferenceable(32) ptr @_ZNSt7__cxx1112basic_stringIcSt11char_traitsIcESaIcEEaSEOS4_(ptr noundef nonnull align 8 dereferenceable(32) %self_space_13, ptr noundef nonnull align 8 dereferenceable(32) %12) #21
  %buf_16 = getelementptr inbounds i8, ptr %this, i64 80
  store ptr %self_space_13, ptr %buf_16, align 8
  %call18 = tail call noundef ptr @_ZNSt7__cxx1112basic_stringIcSt11char_traitsIcESaIcEE4dataEv(ptr noundef nonnull align 8 dereferenceable(32) %self_space_13) #21
  br label %if.end25

if.else20:                                        ; preds = %if.else
  %buf_22 = getelementptr inbounds i8, ptr %this, i64 80
  store ptr %12, ptr %buf_22, align 8
  %13 = load ptr, ptr %other, align 8
  br label %if.end25

if.end25:                                         ; preds = %if.then11, %if.else20, %if.then8
  %call18.sink = phi ptr [ %call18, %if.then11 ], [ %13, %if.else20 ], [ %11, %if.then8 ]
  store ptr %call18.sink, ptr %this, align 8
  %self_space_26 = getelementptr inbounds i8, ptr %other, i64 48
  tail call void @_ZNSt7__cxx1112basic_stringIcSt11char_traitsIcESaIcEE5clearEv(ptr noundef nonnull align 8 dereferenceable(32) %self_space_26) #21
  %buf_28 = getelementptr inbounds i8, ptr %other, i64 80
  store ptr %self_space_26, ptr %buf_28, align 8
  store i8 0, ptr %pinned_, align 8
  %call.i = tail call noundef ptr @_ZNSt7__cxx1112basic_stringIcSt11char_traitsIcESaIcEE4dataEv(ptr noundef nonnull align 8 dereferenceable(32) %self_space_26) #21
  store ptr %call.i, ptr %other, align 8
  %14 = load ptr, ptr %buf_28, align 8
  %call3.i = tail call noundef i64 @_ZNKSt7__cxx1112basic_stringIcSt11char_traitsIcESaIcEE4sizeEv(ptr noundef nonnull align 8 dereferenceable(32) %14) #21
  store i64 %call3.i, ptr %size_, align 8
  br label %if.end30

if.end30:                                         ; preds = %if.end25, %entry
  ret ptr %this
}